; Function Attrs: mustprogress uwtable
define void @_ZN9grpc_core21promise_filter_detail14ClientCallData20ForceImmediateRepollEt(ptr nocapture noundef nonnull readonly align 16 dereferenceable(272) %this, i16 zeroext %0) unnamed_addr #3 align 2 {
entry:
  %poll_ctx_ = getelementptr inbounds i8, ptr %this, i64 256
  %1 = load ptr, ptr %poll_ctx_, align 16
  %cmp.not = icmp eq ptr %1, null
  br i1 %cmp.not, label %if.then, label %do.end

if.then:                                          ; preds = %entry
  tail call void @gpr_assertion_failed(ptr noundef nonnull @.str.5, i32 noundef 1332, ptr noundef nonnull @.str.70) #33
  unreachable

do.end:                                           ; preds = %entry
  %repoll_.i = getelementptr inbounds i8, ptr %1, i64 24
  store i8 1, ptr %repoll_.i, align 8
  ret void
}